(dp1
S'OriginalConfig'
p2
ccopy_reg
_reconstructor
p3
(cWMCore.Configuration
Configuration
p4
c__builtin__
object
p5
NtRp6
(dp7
S'Site'
p8
g3
(cWMCore.Configuration
ConfigSection
p9
g5
NtRp10
(dp11
S'_internal_skipChecks'
p12
I00
sS'_internal_documentation'
p13
S''
sS'_internal_settings'
p14
c__builtin__
set
p15
((lp16
S'storageSite'
p17
atRp18
sS'_internal_name'
p19
g8
sS'_internal_docstrings'
p20
(dp21
sS'_internal_children'
p22
g15
((ltRp23
sg17
S'T2_US_Florida'
p24
sS'_internal_parent_ref'
p25
NsbsS'_internal_sections'
p26
(lp27
S'General'
p28
aS'JobType'
p29
aS'Data'
p30
ag8
asg28
g3
(g9
g5
NtRp31
(dp32
S'transferLogs'
p33
I01
sg12
I00
sg13
S''
sg14
g15
((lp34
g33
aS'workArea'
p35
aS'requestName'
p36
atRp37
sg19
g28
sg20
(dp38
sg22
g15
((ltRp39
sg36
S'DMuNuEta_MuMuGammaPi0_GEN_11_03_2020'
p40
sg25
Nsg35
S'crab_area'
p41
sbsS'_internal_webapps'
p42
(lp43
sS'_internal_components'
p44
(lp45
sg30
g3
(g9
g5
NtRp46
(dp47
S'inputDataset'
p48
S'/DMuNuEta_MuMuGammaPi0_GEN_11_03_2020/cherepan-DMuNuEta_MuMuGammaPi0_GEN_11_03_2020-2c9912c72108c252c02b22bd1c4743d6/USER'
p49
sS'outputDatasetTag'
p50
S'DMuNuEta_MuMuGammaPi0_GEN_11_03_2020_AOD'
p51
sg12
I00
sS'unitsPerJob'
p52
I1
sg13
S''
sg14
g15
((lp53
g48
ag50
aS'totalUnits'
p54
ag52
aS'inputDBS'
p55
aS'splitting'
p56
aS'outLFNDirBase'
p57
aS'publication'
p58
atRp59
sg57
S'/store/user/cherepan/'
p60
sg19
g30
sg56
S'FileBased'
p61
sg20
(dp62
sg22
g15
((ltRp63
sg58
I01
sg55
S'phys03'
p64
sg25
Nsg54
I-1
sbsg29
g3
(g9
g5
NtRp65
(dp66
S'numCores'
p67
I4
sg12
I00
sg13
S''
sg14
g15
((lp68
S'psetName'
p69
aS'pluginName'
p70
ag67
aS'allowUndistributedCMSSW'
p71
aS'maxMemoryMB'
p72
atRp73
sg19
g29
sg20
(dp74
sg70
S'Analysis'
p75
sg22
g15
((ltRp76
sg71
I01
sg69
S'DMuNuEta_MuMuGammaPi0_GEN_11_03_2020_DIGI.py'
p77
sg25
Nsg72
I5000
sbsbsS'voGroup'
p78
S''
sS'Server'
p79
S'cmsweb.cern.ch'
p80
sS'instance'
p81
S'prod'
p82
sS'RequestName'
p83
V200314_135432:cherepan_crab_DMuNuEta_MuMuGammaPi0_GEN_11_03_2020
p84
sS'voRole'
p85
S'NULL'
p86
sS'Port'
p87
S''
s.